target datalayout = "e-m:e-p270:32:32-p271:32:32-p272:64:64-i64:64-i128:128-f80:128-n8:16:32:64-S128"
target triple = "x86_64-pc-linux-gnu"

%struct._php_stream_ops = type { ptr, ptr, ptr, ptr, ptr, ptr, ptr, ptr, ptr }
%struct._php_stream = type { ptr, ptr, %struct._php_stream_filter_chain, %struct._php_stream_filter_chain, ptr, ptr, %struct._zval_struct, i16, [16 x i8], i32, ptr, ptr, ptr, ptr, i64, ptr, i64, i64, i64, i64, ptr }
%struct._php_stream_filter_chain = type { ptr, ptr, ptr }
%struct._zval_struct = type { %union._zend_value, %union.anon, %union.anon.2 }
%union._zend_value = type { i64 }
%union.anon = type { i32 }
%union.anon.2 = type { i32 }
%struct.php_stdio_stream_data = type { ptr, i32, i32, i32, ptr, ptr, i64, %struct.stat }
%struct.stat = type { i64, i64, i64, i32, i32, i32, i32, i64, i64, i64, i64, %struct.timespec, %struct.timespec, %struct.timespec, [3 x i64] }
%struct.timespec = type { i64, i64 }

@php_stream_stdio_ops = dso_local global %struct._php_stream_ops { ptr @php_stdiop_write, ptr @php_stdiop_read, ptr @php_stdiop_close, ptr @php_stdiop_flush, ptr @.str.3, ptr @php_stdiop_seek, ptr @php_stdiop_cast, ptr @php_stdiop_stat, ptr @php_stdiop_set_option }, align 8

; Function Attrs: nounwind uwtable
define internal i32 @do_fstat(ptr noundef %0, i32 noundef %1) #0 {
  %3 = alloca i32, align 4
  %4 = alloca ptr, align 8
  %5 = alloca i32, align 4
  %6 = alloca i32, align 4
  %7 = alloca i32, align 4
  store ptr %0, ptr %4, align 8, !tbaa !31
  store i32 %1, ptr %5, align 4, !tbaa !12
  %8 = load ptr, ptr %4, align 8, !tbaa !31
  %9 = getelementptr inbounds nuw %struct.php_stdio_stream_data, ptr %8, i32 0, i32 2
  %10 = load i32, ptr %9, align 4
  %11 = lshr i32 %10, 2
  %12 = and i32 %11, 1
  %13 = icmp ne i32 %12, 0
  br i1 %13, label %14, label %24

14:                                               ; preds = %2
  %15 = load i32, ptr %5, align 4, !tbaa !12
  %16 = icmp ne i32 %15, 0
  br i1 %16, label %17, label %55

17:                                               ; preds = %14
  %18 = load ptr, ptr %4, align 8, !tbaa !31
  %19 = getelementptr inbounds nuw %struct.php_stdio_stream_data, ptr %18, i32 0, i32 2
  %20 = load i32, ptr %19, align 4
  %21 = lshr i32 %20, 4
  %22 = and i32 %21, 1
  %23 = icmp ne i32 %22, 0
  br i1 %23, label %55, label %24

24:                                               ; preds = %17, %2
  call void @llvm.lifetime.start.p0(i64 4, ptr %6) #13
  call void @llvm.lifetime.start.p0(i64 4, ptr %7) #13
  %25 = load ptr, ptr %4, align 8, !tbaa !31
  %26 = getelementptr inbounds nuw %struct.php_stdio_stream_data, ptr %25, i32 0, i32 0
  %27 = load ptr, ptr %26, align 8, !tbaa !42
  %28 = icmp ne ptr %27, null
  br i1 %28, label %29, label %34

29:                                               ; preds = %24
  %30 = load ptr, ptr %4, align 8, !tbaa !31
  %31 = getelementptr inbounds nuw %struct.php_stdio_stream_data, ptr %30, i32 0, i32 0
  %32 = load ptr, ptr %31, align 8, !tbaa !42
  %33 = call i32 @fileno(ptr noundef %32) #13
  br label %38

34:                                               ; preds = %24
  %35 = load ptr, ptr %4, align 8, !tbaa !31
  %36 = getelementptr inbounds nuw %struct.php_stdio_stream_data, ptr %35, i32 0, i32 1
  %37 = load i32, ptr %36, align 8, !tbaa !43
  br label %38

38:                                               ; preds = %34, %29
  %39 = phi i32 [ %33, %29 ], [ %37, %34 ]
  store i32 %39, ptr %6, align 4, !tbaa !12
  %40 = load i32, ptr %6, align 4, !tbaa !12
  %41 = load ptr, ptr %4, align 8, !tbaa !31
  %42 = getelementptr inbounds nuw %struct.php_stdio_stream_data, ptr %41, i32 0, i32 7
  %43 = call i32 @fstat(i32 noundef %40, ptr noundef %42) #13
  store i32 %43, ptr %7, align 4, !tbaa !12
  %44 = load i32, ptr %7, align 4, !tbaa !12
  %45 = icmp eq i32 %44, 0
  %46 = zext i1 %45 to i32
  %47 = load ptr, ptr %4, align 8, !tbaa !31
  %48 = getelementptr inbounds nuw %struct.php_stdio_stream_data, ptr %47, i32 0, i32 2
  %49 = load i32, ptr %48, align 4
  %50 = and i32 %46, 1
  %51 = shl i32 %50, 2
  %52 = and i32 %49, -5
  %53 = or i32 %52, %51
  store i32 %53, ptr %48, align 4
  %54 = load i32, ptr %7, align 4, !tbaa !12
  store i32 %54, ptr %3, align 4
  call void @llvm.lifetime.end.p0(i64 4, ptr %7) #13
  call void @llvm.lifetime.end.p0(i64 4, ptr %6) #13
  br label %56

55:                                               ; preds = %17, %14
  store i32 0, ptr %3, align 4
  br label %56

56:                                               ; preds = %55, %38
  %57 = load i32, ptr %3, align 4
  ret i32 %57
}

; Function Attrs: nounwind uwtable
define internal void @detect_is_seekable(ptr noundef %0) #0 {
  %2 = alloca ptr, align 8
  store ptr %0, ptr %2, align 8, !tbaa !31
  %3 = load ptr, ptr %2, align 8, !tbaa !31
  %4 = getelementptr inbounds nuw %struct.php_stdio_stream_data, ptr %3, i32 0, i32 1
  %5 = load i32, ptr %4, align 8, !tbaa !43
  %6 = icmp sge i32 %5, 0
  br i1 %6, label %7, label %50

7:                                                ; preds = %1
  %8 = load ptr, ptr %2, align 8, !tbaa !31
  %9 = call i32 @do_fstat(ptr noundef %8, i32 noundef 0)
  %10 = icmp eq i32 %9, 0
  br i1 %10, label %11, label %50

11:                                               ; preds = %7
  %12 = load ptr, ptr %2, align 8, !tbaa !31
  %13 = getelementptr inbounds nuw %struct.php_stdio_stream_data, ptr %12, i32 0, i32 7
  %14 = getelementptr inbounds nuw %struct.stat, ptr %13, i32 0, i32 3
  %15 = load i32, ptr %14, align 8, !tbaa !50
  %16 = and i32 %15, 61440
  %17 = icmp eq i32 %16, 4096
  br i1 %17, label %25, label %18

18:                                               ; preds = %11
  %19 = load ptr, ptr %2, align 8, !tbaa !31
  %20 = getelementptr inbounds nuw %struct.php_stdio_stream_data, ptr %19, i32 0, i32 7
  %21 = getelementptr inbounds nuw %struct.stat, ptr %20, i32 0, i32 3
  %22 = load i32, ptr %21, align 8, !tbaa !50
  %23 = and i32 %22, 61440
  %24 = icmp eq i32 %23, 8192
  br label %25

25:                                               ; preds = %18, %11
  %26 = phi i1 [ true, %11 ], [ %24, %18 ]
  %27 = xor i1 %26, true
  %28 = zext i1 %27 to i32
  %29 = load ptr, ptr %2, align 8, !tbaa !31
  %30 = getelementptr inbounds nuw %struct.php_stdio_stream_data, ptr %29, i32 0, i32 2
  %31 = load i32, ptr %30, align 4
  %32 = and i32 %28, 1
  %33 = shl i32 %32, 5
  %34 = and i32 %31, -33
  %35 = or i32 %34, %33
  store i32 %35, ptr %30, align 4
  %36 = load ptr, ptr %2, align 8, !tbaa !31
  %37 = getelementptr inbounds nuw %struct.php_stdio_stream_data, ptr %36, i32 0, i32 7
  %38 = getelementptr inbounds nuw %struct.stat, ptr %37, i32 0, i32 3
  %39 = load i32, ptr %38, align 8, !tbaa !50
  %40 = and i32 %39, 61440
  %41 = icmp eq i32 %40, 4096
  %42 = zext i1 %41 to i32
  %43 = load ptr, ptr %2, align 8, !tbaa !31
  %44 = getelementptr inbounds nuw %struct.php_stdio_stream_data, ptr %43, i32 0, i32 2
  %45 = load i32, ptr %44, align 4
  %46 = and i32 %42, 1
  %47 = shl i32 %46, 1
  %48 = and i32 %45, -3
  %49 = or i32 %48, %47
  store i32 %49, ptr %44, align 4
  br label %50

50:                                               ; preds = %25, %7, %1
  ret void
}

; Function Attrs: nounwind uwtable
define internal ptr @_php_stream_fopen_from_fd_int(i32 noundef %0, ptr noundef %1, ptr noundef %2) #0 {
  %4 = alloca i32, align 4
  %5 = alloca ptr, align 8
  %6 = alloca ptr, align 8
  %7 = alloca ptr, align 8
  store i32 %0, ptr %4, align 4, !tbaa !12
  store ptr %1, ptr %5, align 8, !tbaa !4
  store ptr %2, ptr %6, align 8, !tbaa !4
  call void @llvm.lifetime.start.p0(i64 8, ptr %7) #13
  %8 = load ptr, ptr %6, align 8, !tbaa !4
  %9 = icmp ne ptr %8, null
  br i1 %9, label %10, label %12

10:                                               ; preds = %3
  %11 = call noalias ptr @__zend_malloc(i64 noundef 192) #15
  br label %14

12:                                               ; preds = %3
  %13 = call noalias ptr @_emalloc_192()
  br label %14

14:                                               ; preds = %12, %10
  %15 = phi ptr [ %11, %10 ], [ %13, %12 ]
  store ptr %15, ptr %7, align 8, !tbaa !31
  %16 = load ptr, ptr %7, align 8, !tbaa !31
  call void @llvm.memset.p0.i64(ptr align 8 %16, i8 0, i64 192, i1 false)
  %17 = load ptr, ptr %7, align 8, !tbaa !31
  %18 = getelementptr inbounds nuw %struct.php_stdio_stream_data, ptr %17, i32 0, i32 0
  store ptr null, ptr %18, align 8, !tbaa !42
  %19 = load ptr, ptr %7, align 8, !tbaa !31
  %20 = getelementptr inbounds nuw %struct.php_stdio_stream_data, ptr %19, i32 0, i32 2
  %21 = load i32, ptr %20, align 4
  %22 = and i32 %21, -33
  %23 = or i32 %22, 32
  store i32 %23, ptr %20, align 4
  %24 = load ptr, ptr %7, align 8, !tbaa !31
  %25 = getelementptr inbounds nuw %struct.php_stdio_stream_data, ptr %24, i32 0, i32 2
  %26 = load i32, ptr %25, align 4
  %27 = and i32 %26, -3
  %28 = or i32 %27, 0
  store i32 %28, ptr %25, align 4
  %29 = load ptr, ptr %7, align 8, !tbaa !31
  %30 = getelementptr inbounds nuw %struct.php_stdio_stream_data, ptr %29, i32 0, i32 3
  store i32 8, ptr %30, align 8, !tbaa !41
  %31 = load ptr, ptr %7, align 8, !tbaa !31
  %32 = getelementptr inbounds nuw %struct.php_stdio_stream_data, ptr %31, i32 0, i32 2
  %33 = load i32, ptr %32, align 4
  %34 = and i32 %33, -2
  %35 = or i32 %34, 0
  store i32 %35, ptr %32, align 4
  %36 = load ptr, ptr %7, align 8, !tbaa !31
  %37 = getelementptr inbounds nuw %struct.php_stdio_stream_data, ptr %36, i32 0, i32 4
  store ptr null, ptr %37, align 8, !tbaa !37
  %38 = load i32, ptr %4, align 4, !tbaa !12
  %39 = load ptr, ptr %7, align 8, !tbaa !31
  %40 = getelementptr inbounds nuw %struct.php_stdio_stream_data, ptr %39, i32 0, i32 1
  store i32 %38, ptr %40, align 8, !tbaa !43
  %41 = load ptr, ptr %7, align 8, !tbaa !31
  %42 = load ptr, ptr %6, align 8, !tbaa !4
  %43 = load ptr, ptr %5, align 8, !tbaa !4
  %44 = call ptr @_php_stream_alloc(ptr noundef @php_stream_stdio_ops, ptr noundef %41, ptr noundef %42, ptr noundef %43)
  call void @llvm.lifetime.end.p0(i64 8, ptr %7) #13
  ret ptr %44
}

; Function Attrs: nounwind uwtable
define dso_local ptr @_php_stream_fopen_from_fd(i32 noundef %0, ptr noundef %1, ptr noundef %2, i1 noundef zeroext %3) #0 {
  %5 = alloca i32, align 4
  %6 = alloca ptr, align 8
  %7 = alloca ptr, align 8
  %8 = alloca i8, align 1
  %9 = alloca ptr, align 8
  %10 = alloca ptr, align 8
  store i32 %0, ptr %5, align 4, !tbaa !12
  store ptr %1, ptr %6, align 8, !tbaa !4
  store ptr %2, ptr %7, align 8, !tbaa !4
  %11 = zext i1 %3 to i8
  store i8 %11, ptr %8, align 1, !tbaa !44
  call void @llvm.lifetime.start.p0(i64 8, ptr %9) #13
  %12 = load i32, ptr %5, align 4, !tbaa !12
  %13 = load ptr, ptr %6, align 8, !tbaa !4
  %14 = load ptr, ptr %7, align 8, !tbaa !4
  %15 = call ptr @_php_stream_fopen_from_fd_int(i32 noundef %12, ptr noundef %13, ptr noundef %14)
  store ptr %15, ptr %9, align 8, !tbaa !18
  %16 = load ptr, ptr %9, align 8, !tbaa !18
  %17 = icmp ne ptr %16, null
  br i1 %17, label %18, label %70

18:                                               ; preds = %4
  call void @llvm.lifetime.start.p0(i64 8, ptr %10) #13
  %19 = load ptr, ptr %9, align 8, !tbaa !18
  %20 = getelementptr inbounds nuw %struct._php_stream, ptr %19, i32 0, i32 1
  %21 = load ptr, ptr %20, align 8, !tbaa !20
  store ptr %21, ptr %10, align 8, !tbaa !31
  %22 = load ptr, ptr %10, align 8, !tbaa !31
  call void @detect_is_seekable(ptr noundef %22)
  %23 = load ptr, ptr %10, align 8, !tbaa !31
  %24 = getelementptr inbounds nuw %struct.php_stdio_stream_data, ptr %23, i32 0, i32 2
  %25 = load i32, ptr %24, align 4
  %26 = lshr i32 %25, 5
  %27 = and i32 %26, 1
  %28 = icmp ne i32 %27, 0
  br i1 %28, label %36, label %29

29:                                               ; preds = %18
  %30 = load ptr, ptr %9, align 8, !tbaa !18
  %31 = getelementptr inbounds nuw %struct._php_stream, ptr %30, i32 0, i32 9
  %32 = load i32, ptr %31, align 4, !tbaa !46
  %33 = or i32 %32, 1
  store i32 %33, ptr %31, align 4, !tbaa !46
  %34 = load ptr, ptr %9, align 8, !tbaa !18
  %35 = getelementptr inbounds nuw %struct._php_stream, ptr %34, i32 0, i32 14
  store i64 -1, ptr %35, align 8, !tbaa !47
  br label %69

36:                                               ; preds = %18
  %37 = load i8, ptr %8, align 1, !tbaa !44, !range !48, !noundef !49
  %38 = trunc i8 %37 to i1
  br i1 %38, label %39, label %42

39:                                               ; preds = %36
  %40 = load ptr, ptr %9, align 8, !tbaa !18
  %41 = getelementptr inbounds nuw %struct._php_stream, ptr %40, i32 0, i32 14
  store i64 0, ptr %41, align 8, !tbaa !47
  br label %68

42:                                               ; preds = %36
  %43 = load ptr, ptr %10, align 8, !tbaa !31
  %44 = getelementptr inbounds nuw %struct.php_stdio_stream_data, ptr %43, i32 0, i32 1
  %45 = load i32, ptr %44, align 8, !tbaa !43
  %46 = call i64 @lseek(i32 noundef %45, i64 noundef 0, i32 noundef 1) #13
  %47 = load ptr, ptr %9, align 8, !tbaa !18
  %48 = getelementptr inbounds nuw %struct._php_stream, ptr %47, i32 0, i32 14
  store i64 %46, ptr %48, align 8, !tbaa !47
  %49 = load ptr, ptr %9, align 8, !tbaa !18
  %50 = getelementptr inbounds nuw %struct._php_stream, ptr %49, i32 0, i32 14
  %51 = load i64, ptr %50, align 8, !tbaa !47
  %52 = icmp eq i64 %51, -1
  br i1 %52, label %53, label %67

53:                                               ; preds = %42
  %54 = call ptr @__errno_location() #16
  %55 = load i32, ptr %54, align 4, !tbaa !12
  %56 = icmp eq i32 %55, 29
  br i1 %56, label %57, label %67

57:                                               ; preds = %53
  %58 = load ptr, ptr %9, align 8, !tbaa !18
  %59 = getelementptr inbounds nuw %struct._php_stream, ptr %58, i32 0, i32 9
  %60 = load i32, ptr %59, align 4, !tbaa !46
  %61 = or i32 %60, 1
  store i32 %61, ptr %59, align 4, !tbaa !46
  %62 = load ptr, ptr %10, align 8, !tbaa !31
  %63 = getelementptr inbounds nuw %struct.php_stdio_stream_data, ptr %62, i32 0, i32 2
  %64 = load i32, ptr %63, align 4
  %65 = and i32 %64, -33
  %66 = or i32 %65, 0
  store i32 %66, ptr %63, align 4
  br label %67

67:                                               ; preds = %57, %53, %42
  br label %68

68:                                               ; preds = %67, %39
  br label %69

69:                                               ; preds = %68, %29
  call void @llvm.lifetime.end.p0(i64 8, ptr %10) #13
  br label %70

70:                                               ; preds = %69, %4
  %71 = load ptr, ptr %9, align 8, !tbaa !18
  call void @llvm.lifetime.end.p0(i64 8, ptr %9) #13
  ret ptr %71
}