; Function Attrs: nounwind uwtable
define dso_local ptr @_php_stream_fopen_from_fd(i32 noundef %0, ptr noundef %1, ptr noundef %2, i1 noundef zeroext %3) local_unnamed_addr #3 {
  %.not.i = icmp eq ptr %2, null
  br i1 %.not.i, label %7, label %5

5:                                                ; preds = %4
  %6 = tail call noalias dereferenceable_or_null(192) ptr @__zend_malloc(i64 noundef 192) #18
  br label %_php_stream_fopen_from_fd_int.exit

7:                                                ; preds = %4
  %8 = tail call noalias ptr @_emalloc_192() #17
  br label %_php_stream_fopen_from_fd_int.exit

_php_stream_fopen_from_fd_int.exit:               ; preds = %5, %7
  %9 = phi ptr [ %6, %5 ], [ %8, %7 ]
  %10 = getelementptr inbounds nuw i8, ptr %9, i64 12
  tail call void @llvm.memset.p0.i64(ptr noundef nonnull align 8 dereferenceable(192) %9, i8 0, i64 192, i1 false)
  %11 = getelementptr inbounds nuw i8, ptr %9, i64 16
  store i32 8, ptr %11, align 8, !tbaa !12
  store i32 32, ptr %10, align 4
  %12 = getelementptr inbounds nuw i8, ptr %9, i64 8
  store i32 %0, ptr %12, align 8, !tbaa !19
  %13 = tail call ptr @_php_stream_alloc(ptr noundef nonnull @php_stream_stdio_ops, ptr noundef nonnull %9, ptr noundef %2, ptr noundef %1) #17
  %.not = icmp eq ptr %13, null
  br i1 %.not, label %73, label %14

14:                                               ; preds = %_php_stream_fopen_from_fd_int.exit
  %15 = getelementptr inbounds nuw i8, ptr %13, i64 8
  %16 = load ptr, ptr %15, align 8, !tbaa !20
  %17 = getelementptr inbounds nuw i8, ptr %16, i64 8
  %18 = load i32, ptr %17, align 8, !tbaa !19
  %19 = icmp sgt i32 %18, -1
  %20 = getelementptr inbounds nuw i8, ptr %16, i64 12
  %21 = load i32, ptr %20, align 4
  br i1 %19, label %22, label %detect_is_seekable.exit

22:                                               ; preds = %14
  %23 = and i32 %21, 4
  %.not.i.i = icmp eq i32 %23, 0
  br i1 %.not.i.i, label %24, label %do_fstat.exit.thread.i

24:                                               ; preds = %22
  %25 = load ptr, ptr %16, align 8, !tbaa !36
  %.not14.i.i = icmp eq ptr %25, null
  br i1 %.not14.i.i, label %do_fstat.exit.i, label %26

26:                                               ; preds = %24
  %27 = tail call i32 @fileno(ptr noundef nonnull %25) #17
  br label %do_fstat.exit.i

do_fstat.exit.i:                                  ; preds = %26, %24
  %28 = phi i32 [ %27, %26 ], [ %18, %24 ]
  %29 = getelementptr inbounds nuw i8, ptr %16, i64 48
  %30 = tail call i32 @fstat(i32 noundef %28, ptr noundef nonnull %29) #17
  %31 = icmp eq i32 %30, 0
  %32 = load i32, ptr %20, align 4
  %33 = select i1 %31, i32 4, i32 0
  %34 = and i32 %32, -5
  %35 = or disjoint i32 %34, %33
  store i32 %35, ptr %20, align 4
  br i1 %31, label %do_fstat.exit.thread.i, label %detect_is_seekable.exit

do_fstat.exit.thread.i:                           ; preds = %do_fstat.exit.i, %22
  %36 = phi i32 [ %21, %22 ], [ %35, %do_fstat.exit.i ]
  %37 = getelementptr inbounds nuw i8, ptr %16, i64 72
  %38 = load i32, ptr %37, align 8, !tbaa !37
  %39 = and i32 %38, 61440
  %40 = icmp eq i32 %39, 4096
  %.not.i17 = icmp eq i32 %39, 8192
  %41 = or i1 %40, %.not.i17
  %42 = select i1 %41, i32 0, i32 32
  %43 = and i32 %36, -35
  %44 = select i1 %40, i32 2, i32 0
  %45 = or disjoint i32 %44, %43
  %46 = or disjoint i32 %45, %42
  store i32 %46, ptr %20, align 4
  br label %detect_is_seekable.exit

detect_is_seekable.exit:                          ; preds = %14, %do_fstat.exit.i, %do_fstat.exit.thread.i
  %47 = phi i32 [ %35, %do_fstat.exit.i ], [ %46, %do_fstat.exit.thread.i ], [ %21, %14 ]
  %48 = getelementptr inbounds nuw i8, ptr %16, i64 12
  %49 = and i32 %47, 32
  %.not16 = icmp eq i32 %49, 0
  br i1 %.not16, label %50, label %55

50:                                               ; preds = %detect_is_seekable.exit
  %51 = getelementptr inbounds nuw i8, ptr %13, i64 116
  %52 = load i32, ptr %51, align 4, !tbaa !38
  %53 = or i32 %52, 1
  store i32 %53, ptr %51, align 4, !tbaa !38
  %54 = getelementptr inbounds nuw i8, ptr %13, i64 152
  store i64 -1, ptr %54, align 8, !tbaa !39
  br label %73

55:                                               ; preds = %detect_is_seekable.exit
  br i1 %3, label %56, label %58

56:                                               ; preds = %55
  %57 = getelementptr inbounds nuw i8, ptr %13, i64 152
  store i64 0, ptr %57, align 8, !tbaa !39
  br label %73

58:                                               ; preds = %55
  %59 = load i32, ptr %17, align 8, !tbaa !19
  %60 = tail call i64 @lseek(i32 noundef %59, i64 noundef 0, i32 noundef 1) #17
  %61 = getelementptr inbounds nuw i8, ptr %13, i64 152
  store i64 %60, ptr %61, align 8, !tbaa !39
  %62 = icmp eq i64 %60, -1
  br i1 %62, label %63, label %73

63:                                               ; preds = %58
  %64 = tail call ptr @__errno_location() #19
  %65 = load i32, ptr %64, align 4, !tbaa !7
  %66 = icmp eq i32 %65, 29
  br i1 %66, label %67, label %73

67:                                               ; preds = %63
  %68 = getelementptr inbounds nuw i8, ptr %13, i64 116
  %69 = load i32, ptr %68, align 4, !tbaa !38
  %70 = or i32 %69, 1
  store i32 %70, ptr %68, align 4, !tbaa !38
  %71 = load i32, ptr %48, align 4
  %72 = and i32 %71, -33
  store i32 %72, ptr %48, align 4
  br label %73

73:                                               ; preds = %50, %58, %63, %67, %56, %_php_stream_fopen_from_fd_int.exit
  ret ptr %13
}